; Function Attrs: nounwind uwtable
define void @Llb_Nonlin4RemovePart(ptr noundef readonly captures(none) %0, ptr noundef captures(none) %1) local_unnamed_addr #2 {
  %3 = getelementptr inbounds nuw i8, ptr %0, i64 24
  %4 = load ptr, ptr %3, align 8, !tbaa !21
  %5 = load i32, ptr %1, align 8, !tbaa !22
  %6 = sext i32 %5 to i64
  %7 = getelementptr inbounds ptr, ptr %4, i64 %6
  store ptr null, ptr %7, align 8, !tbaa !25
  %8 = getelementptr inbounds nuw i8, ptr %1, i64 16
  %9 = load ptr, ptr %8, align 8, !tbaa !27
  %10 = getelementptr inbounds nuw i8, ptr %9, i64 8
  %11 = load ptr, ptr %10, align 8, !tbaa !19
  %.not.i = icmp eq ptr %11, null
  br i1 %.not.i, label %Vec_IntFree.exit, label %12

12:                                               ; preds = %2
  tail call void @free(ptr noundef nonnull %11) #14
  br label %Vec_IntFree.exit

Vec_IntFree.exit:                                 ; preds = %2, %12
  tail call void @free(ptr noundef nonnull %9) #14
  %13 = load ptr, ptr %0, align 8, !tbaa !28
  %14 = getelementptr inbounds nuw i8, ptr %1, i64 8
  %15 = load ptr, ptr %14, align 8, !tbaa !29
  tail call void @Cudd_RecursiveDeref(ptr noundef %13, ptr noundef %15) #14
  tail call void @free(ptr noundef nonnull %1) #14
  ret void
}